target datalayout = "e-m:e-p270:32:32-p271:32:32-p272:64:64-i64:64-i128:128-f80:128-n8:16:32:64-S128"
target triple = "x86_64-pc-linux-gnu"

%struct.diff_options = type { ptr, ptr, i32, i32, ptr, i32, ptr, i64, i64, ptr, ptr, ptr, ptr, %struct.diff_flags, i32, i32, i32, i32, i32, i32, i32, i32, i32, i32, i32, i32, i32, i32, i32, i32, i32, i32, i32, i32, i32, i32, ptr, i32, ptr, i32, i32, ptr, i64, i64, i32, i32, i32, i32, ptr, i32, i32, ptr, i32, i32, ptr, ptr, i32, [3 x i8], %struct.pathspec, ptr, ptr, ptr, ptr, ptr, ptr, ptr, ptr, i32, ptr, i32, i32, ptr, ptr, i32 }
%struct.diff_flags = type { i32, i32, i32, i32, i32, i32, i32, i32, i32, i32, i32, i32, i32, i32, i32, i32, i32, i32, i32, i32, i32, i32, i32, i32, i32, i32, i32, i32, i32, i32, i32, i32, i32, i32, i32 }
%struct.pathspec = type { i32, i8, i32, i32, ptr }
%struct.string_list = type { ptr, i64, i64, i8, ptr }
%struct.string_list_item = type { ptr, ptr }

@.str.41 = private unnamed_addr constant [1 x i8] zeroinitializer, align 1
@.str.85 = private unnamed_addr constant [11 x i8] c"cumulative\00", align 1
@git_gettext_enabled = external global i32, align 4
@.str.295 = private unnamed_addr constant [2 x i8] c",\00", align 1
@.str.296 = private unnamed_addr constant [8 x i8] c"changes\00", align 1
@.str.297 = private unnamed_addr constant [6 x i8] c"lines\00", align 1
@.str.298 = private unnamed_addr constant [6 x i8] c"files\00", align 1
@.str.299 = private unnamed_addr constant [14 x i8] c"noncumulative\00", align 1
@sane_ctype = external constant [256 x i8], align 16
@.str.300 = private unnamed_addr constant [51 x i8] c"  Failed to parse dirstat cut-off percentage '%s'\0A\00", align 1
@.str.301 = private unnamed_addr constant [34 x i8] c"  Unknown dirstat parameter '%s'\0A\00", align 1

; Function Attrs: inlinehint nounwind uwtable
define internal ptr @_(ptr noundef %0) #2 {
  %2 = alloca ptr, align 8
  %3 = alloca ptr, align 8
  store ptr %0, ptr %3, align 8, !tbaa !9
  %4 = load ptr, ptr %3, align 8, !tbaa !9
  %5 = load i8, ptr %4, align 1, !tbaa !48
  %6 = icmp ne i8 %5, 0
  br i1 %6, label %8, label %7

7:                                                ; preds = %1
  store ptr @.str.41, ptr %2, align 8
  br label %16

8:                                                ; preds = %1
  %9 = load i32, ptr @git_gettext_enabled, align 4, !tbaa !16
  %10 = icmp ne i32 %9, 0
  br i1 %10, label %13, label %11

11:                                               ; preds = %8
  %12 = load ptr, ptr %3, align 8, !tbaa !9
  store ptr %12, ptr %2, align 8
  br label %16

13:                                               ; preds = %8
  %14 = load ptr, ptr %3, align 8, !tbaa !9
  %15 = call ptr @dcgettext(ptr noundef null, ptr noundef %14, i32 noundef 5) #10
  store ptr %15, ptr %2, align 8
  br label %16

16:                                               ; preds = %13, %11, %7
  %17 = load ptr, ptr %2, align 8
  ret ptr %17
}

; Function Attrs: nounwind uwtable
define internal i32 @parse_dirstat_params(ptr noundef %0, ptr noundef %1, ptr noundef %2) #0 {
  %4 = alloca ptr, align 8
  %5 = alloca ptr, align 8
  %6 = alloca ptr, align 8
  %7 = alloca ptr, align 8
  %8 = alloca %struct.string_list, align 8
  %9 = alloca i32, align 4
  %10 = alloca i32, align 4
  %11 = alloca ptr, align 8
  %12 = alloca ptr, align 8
  %13 = alloca i32, align 4
  store ptr %0, ptr %4, align 8, !tbaa !34
  store ptr %1, ptr %5, align 8, !tbaa !9
  store ptr %2, ptr %6, align 8, !tbaa !53
  call void @llvm.lifetime.start.p0(i64 8, ptr %7) #10
  %14 = load ptr, ptr %5, align 8, !tbaa !9
  %15 = call ptr @xstrdup(ptr noundef %14)
  store ptr %15, ptr %7, align 8, !tbaa !9
  call void @llvm.lifetime.start.p0(i64 40, ptr %8) #10
  call void @llvm.memset.p0.i64(ptr align 8 %8, i8 0, i64 40, i1 false)
  call void @llvm.lifetime.start.p0(i64 4, ptr %9) #10
  store i32 0, ptr %9, align 4, !tbaa !16
  call void @llvm.lifetime.start.p0(i64 4, ptr %10) #10
  %16 = load ptr, ptr %7, align 8, !tbaa !9
  %17 = load i8, ptr %16, align 1, !tbaa !48
  %18 = icmp ne i8 %17, 0
  br i1 %18, label %19, label %22

19:                                               ; preds = %3
  %20 = load ptr, ptr %7, align 8, !tbaa !9
  %21 = call i32 @string_list_split_in_place(ptr noundef %8, ptr noundef %20, ptr noundef @.str.295, i32 noundef -1)
  br label %22

22:                                               ; preds = %19, %3
  store i32 0, ptr %10, align 4, !tbaa !16
  br label %23

23:                                               ; preds = %159, %22
  %24 = load i32, ptr %10, align 4, !tbaa !16
  %25 = sext i32 %24 to i64
  %26 = getelementptr inbounds nuw %struct.string_list, ptr %8, i32 0, i32 1
  %27 = load i64, ptr %26, align 8, !tbaa !28
  %28 = icmp ult i64 %25, %27
  br i1 %28, label %29, label %162

29:                                               ; preds = %23
  call void @llvm.lifetime.start.p0(i64 8, ptr %11) #10
  %30 = getelementptr inbounds nuw %struct.string_list, ptr %8, i32 0, i32 0
  %31 = load ptr, ptr %30, align 8, !tbaa !24
  %32 = load i32, ptr %10, align 4, !tbaa !16
  %33 = sext i32 %32 to i64
  %34 = getelementptr inbounds %struct.string_list_item, ptr %31, i64 %33
  %35 = getelementptr inbounds nuw %struct.string_list_item, ptr %34, i32 0, i32 0
  %36 = load ptr, ptr %35, align 8, !tbaa !29
  store ptr %36, ptr %11, align 8, !tbaa !9
  %37 = load ptr, ptr %11, align 8, !tbaa !9
  %38 = call i32 @strcmp(ptr noundef %37, ptr noundef @.str.296) #11
  %39 = icmp ne i32 %38, 0
  br i1 %39, label %47, label %40

40:                                               ; preds = %29
  %41 = load ptr, ptr %4, align 8, !tbaa !34
  %42 = getelementptr inbounds nuw %struct.diff_options, ptr %41, i32 0, i32 13
  %43 = getelementptr inbounds nuw %struct.diff_flags, ptr %42, i32 0, i32 28
  store i32 0, ptr %43, align 8, !tbaa !55
  %44 = load ptr, ptr %4, align 8, !tbaa !34
  %45 = getelementptr inbounds nuw %struct.diff_options, ptr %44, i32 0, i32 13
  %46 = getelementptr inbounds nuw %struct.diff_flags, ptr %45, i32 0, i32 19
  store i32 0, ptr %46, align 4, !tbaa !56
  br label %158

47:                                               ; preds = %29
  %48 = load ptr, ptr %11, align 8, !tbaa !9
  %49 = call i32 @strcmp(ptr noundef %48, ptr noundef @.str.297) #11
  %50 = icmp ne i32 %49, 0
  br i1 %50, label %58, label %51

51:                                               ; preds = %47
  %52 = load ptr, ptr %4, align 8, !tbaa !34
  %53 = getelementptr inbounds nuw %struct.diff_options, ptr %52, i32 0, i32 13
  %54 = getelementptr inbounds nuw %struct.diff_flags, ptr %53, i32 0, i32 28
  store i32 1, ptr %54, align 8, !tbaa !55
  %55 = load ptr, ptr %4, align 8, !tbaa !34
  %56 = getelementptr inbounds nuw %struct.diff_options, ptr %55, i32 0, i32 13
  %57 = getelementptr inbounds nuw %struct.diff_flags, ptr %56, i32 0, i32 19
  store i32 0, ptr %57, align 4, !tbaa !56
  br label %157

58:                                               ; preds = %47
  %59 = load ptr, ptr %11, align 8, !tbaa !9
  %60 = call i32 @strcmp(ptr noundef %59, ptr noundef @.str.298) #11
  %61 = icmp ne i32 %60, 0
  br i1 %61, label %69, label %62

62:                                               ; preds = %58
  %63 = load ptr, ptr %4, align 8, !tbaa !34
  %64 = getelementptr inbounds nuw %struct.diff_options, ptr %63, i32 0, i32 13
  %65 = getelementptr inbounds nuw %struct.diff_flags, ptr %64, i32 0, i32 28
  store i32 0, ptr %65, align 8, !tbaa !55
  %66 = load ptr, ptr %4, align 8, !tbaa !34
  %67 = getelementptr inbounds nuw %struct.diff_options, ptr %66, i32 0, i32 13
  %68 = getelementptr inbounds nuw %struct.diff_flags, ptr %67, i32 0, i32 19
  store i32 1, ptr %68, align 4, !tbaa !56
  br label %156

69:                                               ; preds = %58
  %70 = load ptr, ptr %11, align 8, !tbaa !9
  %71 = call i32 @strcmp(ptr noundef %70, ptr noundef @.str.299) #11
  %72 = icmp ne i32 %71, 0
  br i1 %72, label %77, label %73

73:                                               ; preds = %69
  %74 = load ptr, ptr %4, align 8, !tbaa !34
  %75 = getelementptr inbounds nuw %struct.diff_options, ptr %74, i32 0, i32 13
  %76 = getelementptr inbounds nuw %struct.diff_flags, ptr %75, i32 0, i32 18
  store i32 0, ptr %76, align 8, !tbaa !57
  br label %155

77:                                               ; preds = %69
  %78 = load ptr, ptr %11, align 8, !tbaa !9
  %79 = call i32 @strcmp(ptr noundef %78, ptr noundef @.str.85) #11
  %80 = icmp ne i32 %79, 0
  br i1 %80, label %85, label %81

81:                                               ; preds = %77
  %82 = load ptr, ptr %4, align 8, !tbaa !34
  %83 = getelementptr inbounds nuw %struct.diff_options, ptr %82, i32 0, i32 13
  %84 = getelementptr inbounds nuw %struct.diff_flags, ptr %83, i32 0, i32 18
  store i32 1, ptr %84, align 8, !tbaa !57
  br label %154

85:                                               ; preds = %77
  %86 = load ptr, ptr %11, align 8, !tbaa !9
  %87 = load i8, ptr %86, align 1, !tbaa !48
  %88 = zext i8 %87 to i64
  %89 = getelementptr inbounds nuw [256 x i8], ptr @sane_ctype, i64 0, i64 %88
  %90 = load i8, ptr %89, align 1, !tbaa !48
  %91 = zext i8 %90 to i32
  %92 = and i32 %91, 2
  %93 = icmp ne i32 %92, 0
  br i1 %93, label %94, label %147

94:                                               ; preds = %85
  call void @llvm.lifetime.start.p0(i64 8, ptr %12) #10
  call void @llvm.lifetime.start.p0(i64 4, ptr %13) #10
  %95 = load ptr, ptr %11, align 8, !tbaa !9
  %96 = call i64 @strtoul(ptr noundef %95, ptr noundef %12, i32 noundef 10) #10
  %97 = mul i64 %96, 10
  %98 = trunc i64 %97 to i32
  store i32 %98, ptr %13, align 4, !tbaa !16
  %99 = load ptr, ptr %12, align 8, !tbaa !9
  %100 = load i8, ptr %99, align 1, !tbaa !48
  %101 = sext i8 %100 to i32
  %102 = icmp eq i32 %101, 46
  br i1 %102, label %103, label %132

103:                                              ; preds = %94
  %104 = load ptr, ptr %12, align 8, !tbaa !9
  %105 = getelementptr inbounds nuw i8, ptr %104, i32 1
  store ptr %105, ptr %12, align 8, !tbaa !9
  %106 = load i8, ptr %105, align 1, !tbaa !48
  %107 = zext i8 %106 to i64
  %108 = getelementptr inbounds nuw [256 x i8], ptr @sane_ctype, i64 0, i64 %107
  %109 = load i8, ptr %108, align 1, !tbaa !48
  %110 = zext i8 %109 to i32
  %111 = and i32 %110, 2
  %112 = icmp ne i32 %111, 0
  br i1 %112, label %113, label %132

113:                                              ; preds = %103
  %114 = load ptr, ptr %12, align 8, !tbaa !9
  %115 = load i8, ptr %114, align 1, !tbaa !48
  %116 = sext i8 %115 to i32
  %117 = sub nsw i32 %116, 48
  %118 = load i32, ptr %13, align 4, !tbaa !16
  %119 = add nsw i32 %118, %117
  store i32 %119, ptr %13, align 4, !tbaa !16
  br label %120

120:                                              ; preds = %130, %113
  %121 = load ptr, ptr %12, align 8, !tbaa !9
  %122 = getelementptr inbounds nuw i8, ptr %121, i32 1
  store ptr %122, ptr %12, align 8, !tbaa !9
  %123 = load i8, ptr %122, align 1, !tbaa !48
  %124 = zext i8 %123 to i64
  %125 = getelementptr inbounds nuw [256 x i8], ptr @sane_ctype, i64 0, i64 %124
  %126 = load i8, ptr %125, align 1, !tbaa !48
  %127 = zext i8 %126 to i32
  %128 = and i32 %127, 2
  %129 = icmp ne i32 %128, 0
  br i1 %129, label %130, label %131

130:                                              ; preds = %120
  br label %120, !llvm.loop !58

131:                                              ; preds = %120
  br label %132

132:                                              ; preds = %131, %103, %94
  %133 = load ptr, ptr %12, align 8, !tbaa !9
  %134 = load i8, ptr %133, align 1, !tbaa !48
  %135 = icmp ne i8 %134, 0
  br i1 %135, label %140, label %136

136:                                              ; preds = %132
  %137 = load i32, ptr %13, align 4, !tbaa !16
  %138 = load ptr, ptr %4, align 8, !tbaa !34
  %139 = getelementptr inbounds nuw %struct.diff_options, ptr %138, i32 0, i32 30
  store i32 %137, ptr %139, align 4, !tbaa !49
  br label %146

140:                                              ; preds = %132
  %141 = load ptr, ptr %6, align 8, !tbaa !53
  %142 = call ptr @_(ptr noundef @.str.300)
  %143 = load ptr, ptr %11, align 8, !tbaa !9
  call void (ptr, ptr, ...) @strbuf_addf(ptr noundef %141, ptr noundef %142, ptr noundef %143)
  %144 = load i32, ptr %9, align 4, !tbaa !16
  %145 = add nsw i32 %144, 1
  store i32 %145, ptr %9, align 4, !tbaa !16
  br label %146

146:                                              ; preds = %140, %136
  call void @llvm.lifetime.end.p0(i64 4, ptr %13) #10
  call void @llvm.lifetime.end.p0(i64 8, ptr %12) #10
  br label %153

147:                                              ; preds = %85
  %148 = load ptr, ptr %6, align 8, !tbaa !53
  %149 = call ptr @_(ptr noundef @.str.301)
  %150 = load ptr, ptr %11, align 8, !tbaa !9
  call void (ptr, ptr, ...) @strbuf_addf(ptr noundef %148, ptr noundef %149, ptr noundef %150)
  %151 = load i32, ptr %9, align 4, !tbaa !16
  %152 = add nsw i32 %151, 1
  store i32 %152, ptr %9, align 4, !tbaa !16
  br label %153

153:                                              ; preds = %147, %146
  br label %154

154:                                              ; preds = %153, %81
  br label %155

155:                                              ; preds = %154, %73
  br label %156

156:                                              ; preds = %155, %62
  br label %157

157:                                              ; preds = %156, %51
  br label %158

158:                                              ; preds = %157, %40
  call void @llvm.lifetime.end.p0(i64 8, ptr %11) #10
  br label %159

159:                                              ; preds = %158
  %160 = load i32, ptr %10, align 4, !tbaa !16
  %161 = add nsw i32 %160, 1
  store i32 %161, ptr %10, align 4, !tbaa !16
  br label %23, !llvm.loop !59

162:                                              ; preds = %23
  call void @string_list_clear(ptr noundef %8, i32 noundef 0)
  %163 = load ptr, ptr %7, align 8, !tbaa !9
  call void @free(ptr noundef %163) #10
  %164 = load i32, ptr %9, align 4, !tbaa !16
  call void @llvm.lifetime.end.p0(i64 4, ptr %10) #10
  call void @llvm.lifetime.end.p0(i64 4, ptr %9) #10
  call void @llvm.lifetime.end.p0(i64 40, ptr %8) #10
  call void @llvm.lifetime.end.p0(i64 8, ptr %7) #10
  ret i32 %164
}