; Function Attrs: nounwind uwtable
define internal fastcc i32 @parse_dirstat_params(ptr noundef writeonly captures(none) %0, ptr noundef %1, ptr noundef nonnull %2) unnamed_addr #0 {
  %4 = alloca %struct.string_list, align 8
  %5 = alloca ptr, align 8
  %6 = tail call ptr @xstrdup(ptr noundef %1) #32
  call void @llvm.lifetime.start.p0(i64 40, ptr nonnull %4) #32
  call void @llvm.memset.p0.i64(ptr noundef nonnull align 8 dereferenceable(40) %4, i8 0, i64 40, i1 false)
  %7 = load i8, ptr %6, align 1, !tbaa !38
  %.not = icmp eq i8 %7, 0
  br i1 %.not, label %._crit_edge, label %8

8:                                                ; preds = %3
  %9 = call i32 @string_list_split_in_place(ptr noundef nonnull %4, ptr noundef nonnull %6, ptr noundef nonnull @.str.295, i32 noundef -1) #32
  %.phi.trans.insert = getelementptr inbounds nuw i8, ptr %4, i64 8
  %.pre = load i64, ptr %.phi.trans.insert, align 8, !tbaa !21
  %10 = icmp eq i64 %.pre, 0
  %11 = getelementptr inbounds nuw i8, ptr %4, i64 8
  br i1 %10, label %._crit_edge, label %.lr.ph

.lr.ph:                                           ; preds = %8
  %12 = getelementptr inbounds nuw i8, ptr %0, i64 300
  %13 = getelementptr inbounds nuw i8, ptr %0, i64 168
  %14 = getelementptr inbounds nuw i8, ptr %0, i64 208
  %15 = getelementptr inbounds nuw i8, ptr %0, i64 172
  br label %16

16:                                               ; preds = %.lr.ph, %80
  %indvars.iv = phi i64 [ 0, %.lr.ph ], [ %indvars.iv.next, %80 ]
  %.03147 = phi i32 [ 0, %.lr.ph ], [ %.1, %80 ]
  %17 = load ptr, ptr %4, align 8, !tbaa !18
  %18 = getelementptr inbounds nuw %struct.string_list_item, ptr %17, i64 %indvars.iv
  %19 = load ptr, ptr %18, align 8, !tbaa !22
  %20 = call i32 @strcmp(ptr noundef nonnull dereferenceable(1) %19, ptr noundef nonnull dereferenceable(8) @.str.296) #33
  %.not34 = icmp eq i32 %20, 0
  br i1 %.not34, label %21, label %22

21:                                               ; preds = %16
  store i32 0, ptr %14, align 8, !tbaa !42
  store i32 0, ptr %15, align 4, !tbaa !43
  br label %80

22:                                               ; preds = %16
  %23 = call i32 @strcmp(ptr noundef nonnull dereferenceable(1) %19, ptr noundef nonnull dereferenceable(6) @.str.297) #33
  %.not35 = icmp eq i32 %23, 0
  br i1 %.not35, label %24, label %25

24:                                               ; preds = %22
  store i32 1, ptr %14, align 8, !tbaa !42
  store i32 0, ptr %15, align 4, !tbaa !43
  br label %80

25:                                               ; preds = %22
  %26 = call i32 @strcmp(ptr noundef nonnull dereferenceable(1) %19, ptr noundef nonnull dereferenceable(6) @.str.298) #33
  %.not36 = icmp eq i32 %26, 0
  br i1 %.not36, label %27, label %28

27:                                               ; preds = %25
  store i32 0, ptr %14, align 8, !tbaa !42
  store i32 1, ptr %15, align 4, !tbaa !43
  br label %80

28:                                               ; preds = %25
  %29 = call i32 @strcmp(ptr noundef nonnull dereferenceable(1) %19, ptr noundef nonnull dereferenceable(14) @.str.299) #33
  %.not37 = icmp eq i32 %29, 0
  br i1 %.not37, label %30, label %31

30:                                               ; preds = %28
  store i32 0, ptr %13, align 8, !tbaa !44
  br label %80

31:                                               ; preds = %28
  %32 = call i32 @strcmp(ptr noundef nonnull dereferenceable(1) %19, ptr noundef nonnull dereferenceable(11) @.str.85) #33
  %.not38 = icmp eq i32 %32, 0
  br i1 %.not38, label %33, label %34

33:                                               ; preds = %31
  store i32 1, ptr %13, align 8, !tbaa !44
  br label %80

34:                                               ; preds = %31
  %35 = load i8, ptr %19, align 1, !tbaa !38
  %36 = zext i8 %35 to i64
  %37 = getelementptr inbounds nuw [256 x i8], ptr @sane_ctype, i64 0, i64 %36
  %38 = load i8, ptr %37, align 1, !tbaa !38
  %39 = and i8 %38, 2
  %.not39 = icmp eq i8 %39, 0
  br i1 %.not39, label %75, label %40

40:                                               ; preds = %34
  call void @llvm.lifetime.start.p0(i64 8, ptr nonnull %5) #32
  %41 = call i64 @strtoul(ptr noundef nonnull %19, ptr noundef nonnull %5, i32 noundef 10) #32
  %42 = trunc i64 %41 to i32
  %43 = mul i32 %42, 10
  %44 = load ptr, ptr %5, align 8, !tbaa !4
  %45 = load i8, ptr %44, align 1, !tbaa !38
  %46 = icmp eq i8 %45, 46
  br i1 %46, label %47, label %66

47:                                               ; preds = %40
  %48 = getelementptr inbounds nuw i8, ptr %44, i64 1
  %49 = load i8, ptr %48, align 1, !tbaa !38
  %50 = zext i8 %49 to i64
  %51 = getelementptr inbounds nuw [256 x i8], ptr @sane_ctype, i64 0, i64 %50
  %52 = load i8, ptr %51, align 1, !tbaa !38
  %53 = and i8 %52, 2
  %.not40 = icmp eq i8 %53, 0
  br i1 %.not40, label %66, label %54

54:                                               ; preds = %47
  %55 = add i32 %43, -48
  br label %56

56:                                               ; preds = %56, %54
  %57 = phi ptr [ %58, %56 ], [ %48, %54 ]
  %58 = getelementptr inbounds nuw i8, ptr %57, i64 1
  %59 = load i8, ptr %58, align 1, !tbaa !38
  %60 = zext i8 %59 to i64
  %61 = getelementptr inbounds nuw [256 x i8], ptr @sane_ctype, i64 0, i64 %60
  %62 = load i8, ptr %61, align 1, !tbaa !38
  %63 = and i8 %62, 2
  %.not41 = icmp eq i8 %63, 0
  br i1 %.not41, label %.loopexit, label %56, !llvm.loop !45

.loopexit:                                        ; preds = %56
  %64 = sext i8 %49 to i32
  %65 = add i32 %55, %64
  br label %66

66:                                               ; preds = %.loopexit, %47, %40
  %67 = phi i8 [ %49, %47 ], [ %45, %40 ], [ %59, %.loopexit ]
  %.0 = phi i32 [ %43, %47 ], [ %43, %40 ], [ %65, %.loopexit ]
  %.not42 = icmp eq i8 %67, 0
  br i1 %.not42, label %68, label %69

68:                                               ; preds = %66
  store i32 %.0, ptr %12, align 4, !tbaa !40
  br label %74

69:                                               ; preds = %66
  %70 = load i32, ptr @git_gettext_enabled, align 4, !tbaa !11
  %.not4.i = icmp eq i32 %70, 0
  br i1 %.not4.i, label %_.exit, label %71

71:                                               ; preds = %69
  %72 = call ptr @dcgettext(ptr noundef null, ptr noundef nonnull @.str.300, i32 noundef 5) #32
  br label %_.exit

_.exit:                                           ; preds = %69, %71
  %.0.i = phi ptr [ %72, %71 ], [ @.str.300, %69 ]
  call void (ptr, ptr, ...) @strbuf_addf(ptr noundef nonnull %2, ptr noundef %.0.i, ptr noundef nonnull %19) #32
  %73 = add nsw i32 %.03147, 1
  br label %74

74:                                               ; preds = %_.exit, %68
  %.2 = phi i32 [ %73, %_.exit ], [ %.03147, %68 ]
  call void @llvm.lifetime.end.p0(i64 8, ptr nonnull %5) #32
  br label %80

75:                                               ; preds = %34
  %76 = load i32, ptr @git_gettext_enabled, align 4, !tbaa !11
  %.not4.i43 = icmp eq i32 %76, 0
  br i1 %.not4.i43, label %_.exit45, label %77

77:                                               ; preds = %75
  %78 = call ptr @dcgettext(ptr noundef null, ptr noundef nonnull @.str.301, i32 noundef 5) #32
  br label %_.exit45

_.exit45:                                         ; preds = %75, %77
  %.0.i44 = phi ptr [ %78, %77 ], [ @.str.301, %75 ]
  call void (ptr, ptr, ...) @strbuf_addf(ptr noundef nonnull %2, ptr noundef %.0.i44, ptr noundef nonnull %19) #32
  %79 = add nsw i32 %.03147, 1
  br label %80

80:                                               ; preds = %24, %30, %74, %_.exit45, %33, %27, %21
  %.1 = phi i32 [ %.2, %74 ], [ %79, %_.exit45 ], [ %.03147, %33 ], [ %.03147, %30 ], [ %.03147, %27 ], [ %.03147, %24 ], [ %.03147, %21 ]
  %indvars.iv.next = add nuw nsw i64 %indvars.iv, 1
  %81 = load i64, ptr %11, align 8, !tbaa !21
  %82 = icmp ugt i64 %81, %indvars.iv.next
  br i1 %82, label %16, label %._crit_edge, !llvm.loop !46

._crit_edge:                                      ; preds = %80, %3, %8
  %.031.lcssa = phi i32 [ 0, %8 ], [ 0, %3 ], [ %.1, %80 ]
  call void @string_list_clear(ptr noundef nonnull %4, i32 noundef 0) #32
  call void @free(ptr noundef %6) #32
  call void @llvm.lifetime.end.p0(i64 40, ptr nonnull %4) #32
  ret i32 %.031.lcssa
}